target datalayout = "e-m:e-p270:32:32-p271:32:32-p272:64:64-i64:64-i128:128-f80:128-n8:16:32:64-S128"
target triple = "x86_64-pc-linux-gnu"

%struct._zend_string = type { %struct._zend_refcounted_h, i64, i64, [1 x i8] }
%struct._zend_refcounted_h = type { i32, %union.anon }
%union.anon = type { i32 }

; Function Attrs: nounwind uwtable
define i32 @php_safe_bcmp(ptr noundef %0, ptr noundef %1) #0 {
  %3 = alloca i32, align 4
  %4 = alloca ptr, align 8
  %5 = alloca ptr, align 8
  %6 = alloca ptr, align 8
  %7 = alloca ptr, align 8
  %8 = alloca i64, align 8
  %9 = alloca i32, align 4
  store ptr %0, ptr %4, align 8
  store ptr %1, ptr %5, align 8
  %10 = load ptr, ptr %4, align 8
  %11 = getelementptr inbounds %struct._zend_string, ptr %10, i32 0, i32 3
  %12 = getelementptr inbounds [1 x i8], ptr %11, i64 0, i64 0
  store ptr %12, ptr %6, align 8
  %13 = load ptr, ptr %5, align 8
  %14 = getelementptr inbounds %struct._zend_string, ptr %13, i32 0, i32 3
  %15 = getelementptr inbounds [1 x i8], ptr %14, i64 0, i64 0
  store ptr %15, ptr %7, align 8
  store i64 0, ptr %8, align 8
  store i32 0, ptr %9, align 4
  %16 = load ptr, ptr %4, align 8
  %17 = getelementptr inbounds %struct._zend_string, ptr %16, i32 0, i32 2
  %18 = load i64, ptr %17, align 8
  %19 = load ptr, ptr %5, align 8
  %20 = getelementptr inbounds %struct._zend_string, ptr %19, i32 0, i32 2
  %21 = load i64, ptr %20, align 8
  %22 = icmp ne i64 %18, %21
  br i1 %22, label %23, label %24

23:                                               ; preds = %2
  store i32 -1, ptr %3, align 4
  br label %49

24:                                               ; preds = %2
  br label %25

25:                                               ; preds = %31, %24
  %26 = load i64, ptr %8, align 8
  %27 = load ptr, ptr %4, align 8
  %28 = getelementptr inbounds %struct._zend_string, ptr %27, i32 0, i32 2
  %29 = load i64, ptr %28, align 8
  %30 = icmp ult i64 %26, %29
  br i1 %30, label %31, label %47

31:                                               ; preds = %25
  %32 = load ptr, ptr %6, align 8
  %33 = load i64, ptr %8, align 8
  %34 = getelementptr inbounds i8, ptr %32, i64 %33
  %35 = load volatile i8, ptr %34, align 1
  %36 = zext i8 %35 to i32
  %37 = load ptr, ptr %7, align 8
  %38 = load i64, ptr %8, align 8
  %39 = getelementptr inbounds i8, ptr %37, i64 %38
  %40 = load volatile i8, ptr %39, align 1
  %41 = zext i8 %40 to i32
  %42 = xor i32 %36, %41
  %43 = load i32, ptr %9, align 4
  %44 = or i32 %43, %42
  store i32 %44, ptr %9, align 4
  %45 = load i64, ptr %8, align 8
  %46 = add i64 %45, 1
  store i64 %46, ptr %8, align 8
  br label %25

47:                                               ; preds = %25
  %48 = load i32, ptr %9, align 4
  store i32 %48, ptr %3, align 4
  br label %49

49:                                               ; preds = %47, %23
  %50 = load i32, ptr %3, align 4
  ret i32 %50
}


!llvm.module.flags = !{!0, !1, !2, !3}

!0 = !{i32 1, !"wchar_size", i32 4}
!1 = !{i32 8, !"PIC Level", i32 2}
!2 = !{i32 7, !"uwtable", i32 2}
!3 = !{i32 7, !"frame-pointer", i32 2}
